target datalayout = "e-m:e-p270:32:32-p271:32:32-p272:64:64-i64:64-i128:128-f80:128-n8:16:32:64-S128"
target triple = "x86_64-pc-linux-gnu"

%struct._zend_refcounted_h = type { i32, %union.anon.3 }
%union.anon.3 = type { i32 }
%struct.smart_str = type { ptr, i64 }
%struct._zend_string = type { %struct._zend_refcounted_h, i64, i64, [1 x i8] }

; Function Attrs: alwaysinline nounwind uwtable
define internal i64 @smart_str_alloc(ptr noundef %0, i64 noundef %1, i1 noundef zeroext %2) #3 {
  %4 = alloca ptr, align 8
  %5 = alloca i64, align 8
  %6 = alloca i8, align 1
  store ptr %0, ptr %4, align 8, !tbaa !88
  store i64 %1, ptr %5, align 8, !tbaa !32
  %7 = zext i1 %2 to i8
  store i8 %7, ptr %6, align 1, !tbaa !89
  %8 = load ptr, ptr %4, align 8, !tbaa !88
  %9 = getelementptr inbounds nuw %struct.smart_str, ptr %8, i32 0, i32 0
  %10 = load ptr, ptr %9, align 8, !tbaa !102
  %11 = icmp ne ptr %10, null
  %12 = xor i1 %11, true
  %13 = xor i1 %12, true
  %14 = xor i1 %13, true
  %15 = zext i1 %14 to i32
  %16 = sext i32 %15 to i64
  %17 = call i64 @llvm.expect.i64(i64 %16, i64 0)
  %18 = icmp ne i64 %17, 0
  br i1 %18, label %19, label %20

19:                                               ; preds = %3
  br label %40

20:                                               ; preds = %3
  %21 = load ptr, ptr %4, align 8, !tbaa !88
  %22 = getelementptr inbounds nuw %struct.smart_str, ptr %21, i32 0, i32 0
  %23 = load ptr, ptr %22, align 8, !tbaa !102
  %24 = getelementptr inbounds nuw %struct._zend_string, ptr %23, i32 0, i32 2
  %25 = load i64, ptr %24, align 8, !tbaa !105
  %26 = load i64, ptr %5, align 8, !tbaa !32
  %27 = add i64 %26, %25
  store i64 %27, ptr %5, align 8, !tbaa !32
  %28 = load i64, ptr %5, align 8, !tbaa !32
  %29 = load ptr, ptr %4, align 8, !tbaa !88
  %30 = getelementptr inbounds nuw %struct.smart_str, ptr %29, i32 0, i32 1
  %31 = load i64, ptr %30, align 8, !tbaa !104
  %32 = icmp uge i64 %28, %31
  %33 = xor i1 %32, true
  %34 = xor i1 %33, true
  %35 = zext i1 %34 to i32
  %36 = sext i32 %35 to i64
  %37 = call i64 @llvm.expect.i64(i64 %36, i64 0)
  %38 = icmp ne i64 %37, 0
  br i1 %38, label %39, label %50

39:                                               ; preds = %20
  br label %40

40:                                               ; preds = %39, %19
  %41 = load i8, ptr %6, align 1, !tbaa !89, !range !100, !noundef !101
  %42 = trunc i8 %41 to i1
  br i1 %42, label %43, label %46

43:                                               ; preds = %40
  %44 = load ptr, ptr %4, align 8, !tbaa !88
  %45 = load i64, ptr %5, align 8, !tbaa !32
  call void @smart_str_realloc(ptr noundef %44, i64 noundef %45)
  br label %49

46:                                               ; preds = %40
  %47 = load ptr, ptr %4, align 8, !tbaa !88
  %48 = load i64, ptr %5, align 8, !tbaa !32
  call void @smart_str_erealloc(ptr noundef %47, i64 noundef %48)
  br label %49

49:                                               ; preds = %46, %43
  br label %50

50:                                               ; preds = %49, %20
  br label %51

51:                                               ; preds = %50
  %52 = load i64, ptr %5, align 8, !tbaa !32
  ret i64 %52
}

; Function Attrs: alwaysinline nounwind uwtable
define internal void @smart_str_appendl_ex(ptr noundef %0, ptr noundef %1, i64 noundef %2, i1 noundef zeroext %3) #3 {
  %5 = alloca ptr, align 8
  %6 = alloca ptr, align 8
  %7 = alloca i64, align 8
  %8 = alloca i8, align 1
  %9 = alloca i64, align 8
  store ptr %0, ptr %5, align 8, !tbaa !88
  store ptr %1, ptr %6, align 8, !tbaa !31
  store i64 %2, ptr %7, align 8, !tbaa !32
  %10 = zext i1 %3 to i8
  store i8 %10, ptr %8, align 1, !tbaa !89
  call void @llvm.lifetime.start.p0(i64 8, ptr %9) #14
  %11 = load ptr, ptr %5, align 8, !tbaa !88
  %12 = load i64, ptr %7, align 8, !tbaa !32
  %13 = load i8, ptr %8, align 1, !tbaa !89, !range !100, !noundef !101
  %14 = trunc i8 %13 to i1
  %15 = call i64 @smart_str_alloc(ptr noundef %11, i64 noundef %12, i1 noundef zeroext %14)
  store i64 %15, ptr %9, align 8, !tbaa !32
  %16 = load ptr, ptr %5, align 8, !tbaa !88
  %17 = getelementptr inbounds nuw %struct.smart_str, ptr %16, i32 0, i32 0
  %18 = load ptr, ptr %17, align 8, !tbaa !102
  %19 = getelementptr inbounds nuw %struct._zend_string, ptr %18, i32 0, i32 3
  %20 = getelementptr inbounds [1 x i8], ptr %19, i64 0, i64 0
  %21 = load ptr, ptr %5, align 8, !tbaa !88
  %22 = getelementptr inbounds nuw %struct.smart_str, ptr %21, i32 0, i32 0
  %23 = load ptr, ptr %22, align 8, !tbaa !102
  %24 = getelementptr inbounds nuw %struct._zend_string, ptr %23, i32 0, i32 2
  %25 = load i64, ptr %24, align 8, !tbaa !105
  %26 = getelementptr inbounds nuw i8, ptr %20, i64 %25
  %27 = load ptr, ptr %6, align 8, !tbaa !31
  %28 = load i64, ptr %7, align 8, !tbaa !32
  call void @llvm.memcpy.p0.p0.i64(ptr align 1 %26, ptr align 1 %27, i64 %28, i1 false)
  %29 = load i64, ptr %9, align 8, !tbaa !32
  %30 = load ptr, ptr %5, align 8, !tbaa !88
  %31 = getelementptr inbounds nuw %struct.smart_str, ptr %30, i32 0, i32 0
  %32 = load ptr, ptr %31, align 8, !tbaa !102
  %33 = getelementptr inbounds nuw %struct._zend_string, ptr %32, i32 0, i32 2
  store i64 %29, ptr %33, align 8, !tbaa !105
  call void @llvm.lifetime.end.p0(i64 8, ptr %9) #14
  ret void
}

; Function Attrs: alwaysinline nounwind uwtable
define internal void @smart_str_appendl(ptr noundef %0, ptr noundef %1, i64 noundef %2) #3 {
  %4 = alloca ptr, align 8
  %5 = alloca ptr, align 8
  %6 = alloca i64, align 8
  store ptr %0, ptr %4, align 8, !tbaa !88
  store ptr %1, ptr %5, align 8, !tbaa !31
  store i64 %2, ptr %6, align 8, !tbaa !32
  %7 = load ptr, ptr %4, align 8, !tbaa !88
  %8 = load ptr, ptr %5, align 8, !tbaa !31
  %9 = load i64, ptr %6, align 8, !tbaa !32
  call void @smart_str_appendl_ex(ptr noundef %7, ptr noundef %8, i64 noundef %9, i1 noundef zeroext false)
  ret void
}

; Function Attrs: nounwind uwtable
define internal i32 @php_new_dom_write_smart_str(ptr noundef %0, ptr noundef %1, i32 noundef %2) #0 {
  %4 = alloca ptr, align 8
  %5 = alloca ptr, align 8
  %6 = alloca i32, align 4
  %7 = alloca ptr, align 8
  store ptr %0, ptr %4, align 8, !tbaa !88
  store ptr %1, ptr %5, align 8, !tbaa !31
  store i32 %2, ptr %6, align 4, !tbaa !86
  call void @llvm.lifetime.start.p0(i64 8, ptr %7) #14
  %8 = load ptr, ptr %4, align 8, !tbaa !88
  store ptr %8, ptr %7, align 8, !tbaa !88
  %9 = load ptr, ptr %7, align 8, !tbaa !88
  %10 = load ptr, ptr %5, align 8, !tbaa !31
  %11 = load i32, ptr %6, align 4, !tbaa !86
  %12 = sext i32 %11 to i64
  call void @smart_str_appendl(ptr noundef %9, ptr noundef %10, i64 noundef %12)
  %13 = load i32, ptr %6, align 4, !tbaa !86
  call void @llvm.lifetime.end.p0(i64 8, ptr %7) #14
  ret i32 %13
}