; Function Attrs: nounwind uwtable
define internal noundef i32 @php_new_dom_write_smart_str(ptr noundef %0, ptr noundef readonly captures(none) %1, i32 noundef returned %2) #0 {
  %4 = sext i32 %2 to i64
  %5 = load ptr, ptr %0, align 8, !tbaa !82
  %.not.i = icmp eq ptr %5, null
  br i1 %.not.i, label %12, label %6, !prof !59

6:                                                ; preds = %3
  %7 = getelementptr inbounds nuw i8, ptr %5, i64 16
  %8 = load i64, ptr %7, align 8, !tbaa !85
  %9 = add i64 %8, %4
  %10 = getelementptr inbounds nuw i8, ptr %0, i64 8
  %11 = load i64, ptr %10, align 8, !tbaa !87
  %.not12.i = icmp ult i64 %9, %11
  br i1 %.not12.i, label %smart_str_alloc.exit, label %12, !prof !88

12:                                               ; preds = %6, %3
  %.0.i = phi i64 [ %4, %3 ], [ %9, %6 ]
  tail call void @smart_str_erealloc(ptr noundef nonnull %0, i64 noundef %.0.i) #12
  %.pre = load ptr, ptr %0, align 8, !tbaa !82
  %.phi.trans.insert = getelementptr inbounds nuw i8, ptr %.pre, i64 16
  %.pre4 = load i64, ptr %.phi.trans.insert, align 8, !tbaa !85
  br label %smart_str_alloc.exit

smart_str_alloc.exit:                             ; preds = %6, %12
  %13 = phi i64 [ %.pre4, %12 ], [ %8, %6 ]
  %14 = phi ptr [ %.pre, %12 ], [ %5, %6 ]
  %.1.i = phi i64 [ %.0.i, %12 ], [ %9, %6 ]
  %15 = getelementptr inbounds nuw i8, ptr %14, i64 24
  %16 = getelementptr inbounds nuw i8, ptr %15, i64 %13
  tail call void @llvm.memcpy.p0.p0.i64(ptr nonnull align 1 %16, ptr align 1 %1, i64 range(i64 -2147483648, 2147483648) %4, i1 false)
  %17 = load ptr, ptr %0, align 8, !tbaa !82
  %18 = getelementptr inbounds nuw i8, ptr %17, i64 16
  store i64 %.1.i, ptr %18, align 8, !tbaa !85
  ret i32 %2
}